(lp0
cnumpy.core.multiarray
scalar
p1
(cnumpy
dtype
p2
(S'f8'
p3
I0
I1
tp4
Rp5
(I3
S'<'
p6
NNNI-1
I-1
I0
tp7
bS'00\xb5\x85\xdc^!@'
p8
tp9
Rp10
ag1
(g5
S'-\x95r\x93\xd5W/@'
p11
tp12
Rp13
ag1
(g5
S"\x96\x90b\xa4\xe9\xe1'@"
p14
tp15
Rp16
ag1
(g5
S'\x93\x18\x14u2\x911@'
p17
tp18
Rp19
a.