(lp0
F13.720369536039513
aF10.447051969530065
aF10.036125275275332
aF9.447013964025462
aF12.58259000703986
aF10.350575809810875
aF12.956095256584922
aF10.391816112188128
aF10.990558112785115
aF6.661526762753402
aF12.619431886269934
aF11.136224923957043
aF12.624094697638002
aF9.696520481109108
aF16.557108583910733
aF18.981074019484268
aF15.325900570278563
aF16.67880702740207
aF22.335843164249212
aF16.57833737397761
aF19.28467492172408
aF18.389966068169482
aF19.27116173707194
aF20.686144562024907
aF16.019152975613665
aF14.23551460931189
aF16.063719229110355
aF20.23096894066276
aF9.071768357073818
aF9.866523209352652
aF7.539866388940886
aF11.356940532602763
aF14.735347097620846
aF8.665656968357338
aF8.78658753537633
aF5.172978998065378
aF8.71515013497491
aF10.143194701101645
aF7.716509891728714
aF10.45329463264606
aF11.367250617998454
aF12.698046751885725
aF9.44277680589921
aF9.724798944732889
aF17.31495302593009
aF9.875364565567502
aF7.212742431336865
aF11.066325461992786
aF7.810784626458857
aF6.637316222444853
aF6.718979216413284
aF9.3709727943802
aF12.312521727578785
aF11.383376773710356
aF7.322804183489655
aF9.590903400547425
aF11.751393048409293
aF14.687781588622796
aF15.01781889081001
aF11.851271146189724
aF10.499994268025503
aF12.799628139721717
aF8.906953567269083
aF14.07681079056758
aF12.160754013927647
aF14.611791401811773
aF9.736250822428191
aF7.436578697111301
aF12.645725403008884
aF14.847936179886693
aF5.9637487656709895
aF4.854258733634285
aF7.515532458225352
aF7.24351166865484
aF6.683094232678977
aF8.662323503144034
aF13.427908207051415
aF5.438408886705387
aF8.505666994948347
aF10.859600316353955
aF11.224053989318545
aF13.121417214024614
aF18.820743436748227
aF16.788535144977597
aF14.196236742741139
aF13.643193696224511
aF13.383893357313772
aF15.382181214820159
aF18.04938949980909
aF14.180264548580848
aF18.039847273881342
aF17.009712315082727
aF15.672287775390162
aF16.41222838094305
aF16.06220049828463
aF15.596381701178514
aF16.947841740865986
aF19.866125090882083
aF15.891176993827658
aF17.71308606508881
aF15.875951665458041
aF17.230509262380085
aF18.67369341732111
aF19.325558875106868
aF24.275338615064516
aF22.467919480180132
aF24.62021638432935
aF22.327391170286166
aF28.38674349589399
aF23.854676024999222
aF24.82891050623624
aF22.902224151289904
aF26.821683421749587
aF25.30180785858491
aF20.974438952331514
aF29.529356521779434
aF21.244665130632058
aF19.500358643695034
aF25.831732486657565
aF34.35436259073539
aF36.40805299474585
aF33.41680580718264
aF31.35455484264197
aF30.201050651706005
aF31.293334361706275
aF32.32814946012211
aF37.51226581294154
aF25.497589265469696
aF30.0293794438815
aF31.375929304017053
aF31.208493629405602
aF34.34005911293881
aF9.754495239591996
aF6.4824226567547365
aF9.104646994743149
aF10.225635257378249
aF16.666498664474293
aF23.82154790521384
aF16.08837517754742
aF12.406150625239109
aF16.336822314205932
aF18.13529379873811
aF16.16329134154675
aF16.482221817333258
aF17.695904025638637
aF19.199714494662
aF8.941936123075102
aF8.97183126048706
aF13.072489499233809
aF13.05613299359142
aF7.372435512253857
aF7.892478308228697
aF10.75506833820601
aF9.48689412491596
aF9.039087898139353
aF8.474267948253429
aF7.9139389740610975
aF29.229877480782108
aF21.545124893620372
aF14.324108581810881
aF16.399733215162566
aF16.929296734395155
aF11.919779279521949
aF14.133046508479653
aF8.582010153365117
aF6.99579679388089
aF8.959421722903775
aF46.35572926152543
aF39.45220588084423
aF31.405809200886722
aF36.07329531259558
aF29.25440201011145
aF10.668426374567005
aF11.269127533234117
aF11.144048219861437
aF12.706485903884381
aF11.155769606248553
aF22.309901963080502
aF22.83639039310748
aF23.807133121699113
aF21.958651560225217
aF28.232193648123495
aF24.688611801525724
aF23.925600953166967
aF24.504143182196138
aF27.750881898834717
aF22.310440157339933
aF10.630616123363705
aF4.7869175678782705
aF4.2337147172447365
aF5.485713209055602
aF13.364402662853118
aF13.398251363955945
aF15.547825980412687
aF13.787330150939377
aF11.536778156635599
aF12.89269911606867
aF15.833440560410045
aF15.221818962604734
aF12.862042437908636
aF9.01337835537594
aF33.14431053656629
aF25.571974108730227
aF33.8719874198063
aF31.930315477233574
aF32.67929872470793
a.